target datalayout = "e-m:e-p270:32:32-p271:32:32-p272:64:64-i64:64-i128:128-f80:128-n8:16:32:64-S128"
target triple = "x86_64-pc-linux-gnu"

%struct.cq_vtable = type { i32, i64, ptr, ptr, ptr, ptr, ptr, ptr, ptr }
%"struct.(anonymous namespace)::cq_poller_vtable" = type { i8, i8, ptr, ptr, ptr, ptr, ptr, ptr }
%struct.grpc_completion_queue = type <{ %"class.grpc_core::RefCount", [64 x i8], ptr, [64 x i8], ptr, [64 x i8], ptr, %struct.grpc_closure, i32, [4 x i8] }>
%"class.grpc_core::RefCount" = type { %"struct.std::atomic" }
%"struct.std::atomic" = type { %"struct.std::__atomic_base" }
%"struct.std::__atomic_base" = type { i64 }
%struct.grpc_closure = type { %union.anon, ptr, ptr, %union.anon.10 }
%union.anon = type { ptr }
%union.anon.10 = type { i64 }

; Function Attrs: mustprogress nounwind uwtable
define noundef ptr @_Z15grpc_cq_pollsetP21grpc_completion_queue(ptr noundef %0) #4 {
  %2 = alloca ptr, align 8
  store ptr %0, ptr %2, align 8, !tbaa !3
  %3 = load ptr, ptr %2, align 8, !tbaa !3
  %4 = getelementptr inbounds nuw %struct.grpc_completion_queue, ptr %3, i32 0, i32 6
  %5 = load ptr, ptr %4, align 8, !tbaa !76
  %6 = getelementptr inbounds nuw %"struct.(anonymous namespace)::cq_poller_vtable", ptr %5, i32 0, i32 0
  %7 = load i8, ptr %6, align 8, !tbaa !128, !range !72, !noundef !73
  %8 = trunc i8 %7 to i1
  br i1 %8, label %9, label %18

9:                                                ; preds = %1
  %10 = load ptr, ptr %2, align 8, !tbaa !3
  %11 = getelementptr inbounds nuw %struct.grpc_completion_queue, ptr %10, i32 0, i32 4
  %12 = load ptr, ptr %11, align 8, !tbaa !79
  %13 = getelementptr inbounds nuw %struct.cq_vtable, ptr %12, i32 0, i32 1
  %14 = load i64, ptr %13, align 8, !tbaa !80
  %15 = load ptr, ptr %2, align 8, !tbaa !3
  %16 = getelementptr inbounds %struct.grpc_completion_queue, ptr %15, i64 1
  %17 = getelementptr inbounds nuw i8, ptr %16, i64 %14
  br label %19

18:                                               ; preds = %1
  br label %19

19:                                               ; preds = %18, %9
  %20 = phi ptr [ %17, %9 ], [ null, %18 ]
  ret ptr %20
}