; Function Attrs: mustprogress nofree norecurse nosync nounwind willreturn memory(read, inaccessiblemem: none) uwtable
define noundef ptr @_Z15grpc_cq_pollsetP21grpc_completion_queue(ptr noundef readonly %0) local_unnamed_addr #12 {
  %2 = getelementptr inbounds nuw i8, ptr %0, i64 216
  %3 = load ptr, ptr %2, align 8, !tbaa !52
  %4 = load i8, ptr %3, align 8, !tbaa !100, !range !56, !noundef !57
  %5 = trunc nuw i8 %4 to i1
  br i1 %5, label %6, label %13

6:                                                ; preds = %1
  %7 = getelementptr inbounds nuw i8, ptr %0, i64 144
  %8 = load ptr, ptr %7, align 8, !tbaa !48
  %9 = getelementptr inbounds nuw i8, ptr %8, i64 8
  %10 = load i64, ptr %9, align 8, !tbaa !55
  %11 = getelementptr inbounds nuw i8, ptr %0, i64 264
  %12 = getelementptr inbounds nuw i8, ptr %11, i64 %10
  br label %13

13:                                               ; preds = %1, %6
  %14 = phi ptr [ %12, %6 ], [ null, %1 ]
  ret ptr %14
}